target datalayout = "e-m:e-p270:32:32-p271:32:32-p272:64:64-i64:64-i128:128-f80:128-n8:16:32:64-S128"
target triple = "x86_64-pc-linux-gnu"

%struct.__sigset_t = type { [16 x i64] }

@_ZN3nixL15savedSignalMaskE = internal global %struct.__sigset_t zeroinitializer, align 8
@_ZN3nixL20savedSignalMaskIsSetE = internal global i8 0, align 1
@.str.5 = private unnamed_addr constant [21 x i8] c"querying signal mask\00", align 1
@_ZTIN3nix8SysErrorE = linkonce_odr constant { ptr, ptr, ptr } { ptr getelementptr inbounds (ptr, ptr @_ZTVN10__cxxabiv120__si_class_type_infoE, i64 2), ptr @_ZTSN3nix8SysErrorE, ptr @_ZTIN3nix11SystemErrorE }, comdat, align 8

; Function Attrs: mustprogress uwtable
define void @_ZN3nix14saveSignalMaskEv() #4 personality ptr @__gxx_personality_v0 {
  %1 = alloca ptr, align 8
  %2 = alloca i32, align 4
  %3 = call i32 @sigprocmask(i32 noundef 0, ptr noundef null, ptr noundef @_ZN3nixL15savedSignalMaskE) #1
  %4 = icmp ne i32 %3, 0
  br i1 %4, label %5, label %12

5:                                                ; preds = %0
  %6 = call ptr @__cxa_allocate_exception(i64 384) #1
  invoke void @_ZN3nix8SysErrorC2IJA21_cEEEDpRKT_(ptr noundef nonnull align 8 dereferenceable(380) %6, ptr noundef nonnull align 1 dereferenceable(21) @.str.5)
          to label %7 unwind label %8

7:                                                ; preds = %5
  call void @__cxa_throw(ptr %6, ptr @_ZTIN3nix8SysErrorE, ptr @_ZN3nix8SysErrorD2Ev) #20
  unreachable

8:                                                ; preds = %5
  %9 = landingpad { ptr, i32 }
          cleanup
  %10 = extractvalue { ptr, i32 } %9, 0
  store ptr %10, ptr %1, align 8
  %11 = extractvalue { ptr, i32 } %9, 1
  store i32 %11, ptr %2, align 4
  call void @__cxa_free_exception(ptr %6) #1
  br label %13

12:                                               ; preds = %0
  store i8 1, ptr @_ZN3nixL20savedSignalMaskIsSetE, align 1
  ret void

13:                                               ; preds = %8
  %14 = load ptr, ptr %1, align 8
  %15 = load i32, ptr %2, align 4
  %16 = insertvalue { ptr, i32 } poison, ptr %14, 0
  %17 = insertvalue { ptr, i32 } %16, i32 %15, 1
  resume { ptr, i32 } %17
}