; Function Attrs: mustprogress uwtable
define void @_ZN3nix14saveSignalMaskEv() local_unnamed_addr #6 personality ptr @__gxx_personality_v0 {
  %1 = tail call i32 @sigprocmask(i32 noundef 0, ptr noundef null, ptr noundef nonnull @_ZN3nixL15savedSignalMaskE) #3
  %.not = icmp eq i32 %1, 0
  br i1 %.not, label %7, label %2

2:                                                ; preds = %0
  %3 = tail call ptr @__cxa_allocate_exception(i64 384) #3
  invoke void @_ZN3nix8SysErrorC2IJA21_cEEEDpRKT_(ptr noundef nonnull align 8 dereferenceable(380) %3, ptr noundef nonnull align 1 dereferenceable(21) @.str.5)
          to label %4 unwind label %5

4:                                                ; preds = %2
  tail call void @__cxa_throw(ptr nonnull %3, ptr nonnull @_ZTIN3nix8SysErrorE, ptr nonnull @_ZN3nix8SysErrorD2Ev) #27
  unreachable

5:                                                ; preds = %2
  %6 = landingpad { ptr, i32 }
          cleanup
  tail call void @__cxa_free_exception(ptr %3) #3
  resume { ptr, i32 } %6

7:                                                ; preds = %0
  store i1 true, ptr @_ZN3nixL20savedSignalMaskIsSetE, align 1
  ret void
}